; ModuleID = '37/1521.c'
source_filename = "37/1521.c"
target datalayout = "e-m:e-p270:32:32-p271:32:32-p272:64:64-i64:64-f80:128-n8:16:32:64-S128"
target triple = "x86_64-pc-linux-gnu"

@.str = private unnamed_addr constant [3 x i8] c"%d\00", align 1
@.str.1 = private unnamed_addr constant [3 x i8] c"%s\00", align 1
@.str.2 = private unnamed_addr constant [4 x i8] c"%c\0A\00", align 1
@.str.3 = private unnamed_addr constant [4 x i8] c"no\0A\00", align 1

; Function Attrs: noinline nounwind uwtable
define dso_local i32 @main() #0 {
  %1 = alloca i32, align 4
  %2 = alloca i32, align 4
  %3 = alloca i32, align 4
  %4 = alloca i32, align 4
  %5 = alloca i32, align 4
  %6 = alloca i32, align 4
  %7 = alloca i32, align 4
  %8 = alloca [100 x i32], align 16
  %9 = alloca i32, align 4
  %10 = alloca [1000 x i8], align 16
  %11 = alloca [1000 x i8], align 16
  store i32 0, i32* %1, align 4
  store i32 1, i32* %5, align 4
  %12 = call i32 (i8*, ...) @__isoc99_scanf(i8* getelementptr inbounds ([3 x i8], [3 x i8]* @.str, i64 0, i64 0), i32* %6)
  store i32 0, i32* %2, align 4
  br label %13

13:                                               ; preds = %124, %0
  %14 = load i32, i32* %2, align 4
  %15 = load i32, i32* %6, align 4
  %16 = icmp slt i32 %14, %15
  br i1 %16, label %17, label %127

17:                                               ; preds = %13
  %18 = call i32 (i8*, ...) @__isoc99_scanf(i8* getelementptr inbounds ([3 x i8], [3 x i8]* @.str.1, i64 0, i64 0), [1000 x i8]* %10)
  %19 = getelementptr inbounds [1000 x i8], [1000 x i8]* %10, i64 0, i64 0
  %20 = load i8, i8* %19, align 16
  %21 = getelementptr inbounds [1000 x i8], [1000 x i8]* %11, i64 0, i64 0
  store i8 %20, i8* %21, align 16
  %22 = getelementptr inbounds [100 x i32], [100 x i32]* %8, i64 0, i64 0
  store i32 1, i32* %22, align 16
  store i32 1, i32* %3, align 4
  br label %23

23:                                               ; preds = %30, %17
  %24 = load i32, i32* %3, align 4
  %25 = icmp slt i32 %24, 100
  br i1 %25, label %26, label %33

26:                                               ; preds = %23
  %27 = load i32, i32* %3, align 4
  %28 = sext i32 %27 to i64
  %29 = getelementptr inbounds [100 x i32], [100 x i32]* %8, i64 0, i64 %28
  store i32 0, i32* %29, align 4
  br label %30

30:                                               ; preds = %26
  %31 = load i32, i32* %3, align 4
  %32 = add nsw i32 %31, 1
  store i32 %32, i32* %3, align 4
  br label %23

33:                                               ; preds = %23
  store i32 1, i32* %3, align 4
  br label %34

34:                                               ; preds = %93, %33
  %35 = load i32, i32* %3, align 4
  %36 = sext i32 %35 to i64
  %37 = getelementptr inbounds [1000 x i8], [1000 x i8]* %10, i64 0, i64 0
  %38 = call i64 @strlen(i8* %37) #3
  %39 = icmp ult i64 %36, %38
  br i1 %39, label %40, label %96

40:                                               ; preds = %34
  store i32 0, i32* %7, align 4
  store i32 0, i32* %4, align 4
  br label %41

41:                                               ; preds = %67, %40
  %42 = load i32, i32* %4, align 4
  %43 = load i32, i32* %5, align 4
  %44 = icmp slt i32 %42, %43
  br i1 %44, label %45, label %70

45:                                               ; preds = %41
  %46 = load i32, i32* %3, align 4
  %47 = sext i32 %46 to i64
  %48 = getelementptr inbounds [1000 x i8], [1000 x i8]* %10, i64 0, i64 %47
  %49 = load i8, i8* %48, align 1
  %50 = sext i8 %49 to i32
  %51 = load i32, i32* %4, align 4
  %52 = sext i32 %51 to i64
  %53 = getelementptr inbounds [1000 x i8], [1000 x i8]* %11, i64 0, i64 %52
  %54 = load i8, i8* %53, align 1
  %55 = sext i8 %54 to i32
  %56 = icmp eq i32 %50, %55
  br i1 %56, label %57, label %66

57:                                               ; preds = %45
  store i32 1, i32* %7, align 4
  %58 = load i32, i32* %4, align 4
  %59 = sext i32 %58 to i64
  %60 = getelementptr inbounds [100 x i32], [100 x i32]* %8, i64 0, i64 %59
  %61 = load i32, i32* %60, align 4
  %62 = add nsw i32 %61, 1
  %63 = load i32, i32* %4, align 4
  %64 = sext i32 %63 to i64
  %65 = getelementptr inbounds [100 x i32], [100 x i32]* %8, i64 0, i64 %64
  store i32 %62, i32* %65, align 4
  br label %70

66:                                               ; preds = %45
  br label %67

67:                                               ; preds = %66
  %68 = load i32, i32* %4, align 4
  %69 = add nsw i32 %68, 1
  store i32 %69, i32* %4, align 4
  br label %41

70:                                               ; preds = %57, %41
  %71 = load i32, i32* %7, align 4
  %72 = icmp eq i32 %71, 0
  br i1 %72, label %73, label %92

73:                                               ; preds = %70
  %74 = load i32, i32* %3, align 4
  %75 = sext i32 %74 to i64
  %76 = getelementptr inbounds [1000 x i8], [1000 x i8]* %10, i64 0, i64 %75
  %77 = load i8, i8* %76, align 1
  %78 = load i32, i32* %5, align 4
  %79 = sext i32 %78 to i64
  %80 = getelementptr inbounds [1000 x i8], [1000 x i8]* %11, i64 0, i64 %79
  store i8 %77, i8* %80, align 1
  %81 = load i32, i32* %5, align 4
  %82 = sext i32 %81 to i64
  %83 = getelementptr inbounds [100 x i32], [100 x i32]* %8, i64 0, i64 %82
  %84 = load i32, i32* %83, align 4
  %85 = add nsw i32 %84, 1
  %86 = load i32, i32* %5, align 4
  %87 = sext i32 %86 to i64
  %88 = getelementptr inbounds [100 x i32], [100 x i32]* %8, i64 0, i64 %87
  store i32 %85, i32* %88, align 4
  %89 = load i32, i32* %5, align 4
  %90 = add nsw i32 %89, 1
  store i32 %90, i32* %5, align 4
  %91 = load i32, i32* %5, align 4
  store i32 %91, i32* %9, align 4
  br label %92

92:                                               ; preds = %73, %70
  br label %93

93:                                               ; preds = %92
  %94 = load i32, i32* %3, align 4
  %95 = add nsw i32 %94, 1
  store i32 %95, i32* %3, align 4
  br label %34

96:                                               ; preds = %34
  store i32 0, i32* %7, align 4
  store i32 0, i32* %3, align 4
  br label %97

97:                                               ; preds = %115, %96
  %98 = load i32, i32* %3, align 4
  %99 = load i32, i32* %9, align 4
  %100 = icmp slt i32 %98, %99
  br i1 %100, label %101, label %118

101:                                              ; preds = %97
  %102 = load i32, i32* %3, align 4
  %103 = sext i32 %102 to i64
  %104 = getelementptr inbounds [100 x i32], [100 x i32]* %8, i64 0, i64 %103
  %105 = load i32, i32* %104, align 4
  %106 = icmp eq i32 %105, 1
  br i1 %106, label %107, label %114

107:                                              ; preds = %101
  %108 = load i32, i32* %3, align 4
  %109 = sext i32 %108 to i64
  %110 = getelementptr inbounds [1000 x i8], [1000 x i8]* %11, i64 0, i64 %109
  %111 = load i8, i8* %110, align 1
  %112 = sext i8 %111 to i32
  %113 = call i32 (i8*, ...) @printf(i8* getelementptr inbounds ([4 x i8], [4 x i8]* @.str.2, i64 0, i64 0), i32 %112)
  store i32 1, i32* %7, align 4
  br label %118

114:                                              ; preds = %101
  br label %115

115:                                              ; preds = %114
  %116 = load i32, i32* %3, align 4
  %117 = add nsw i32 %116, 1
  store i32 %117, i32* %3, align 4
  br label %97

118:                                              ; preds = %107, %97
  %119 = load i32, i32* %7, align 4
  %120 = icmp eq i32 %119, 0
  br i1 %120, label %121, label %123

121:                                              ; preds = %118
  %122 = call i32 (i8*, ...) @printf(i8* getelementptr inbounds ([4 x i8], [4 x i8]* @.str.3, i64 0, i64 0))
  br label %123

123:                                              ; preds = %121, %118
  br label %124

124:                                              ; preds = %123
  %125 = load i32, i32* %2, align 4
  %126 = add nsw i32 %125, 1
  store i32 %126, i32* %2, align 4
  br label %13

127:                                              ; preds = %13
  ret i32 0
}

declare dso_local i32 @__isoc99_scanf(i8*, ...) #1

; Function Attrs: nounwind readonly
declare dso_local i64 @strlen(i8*) #2

declare dso_local i32 @printf(i8*, ...) #1


!llvm.module.flags = !{!0}
!llvm.ident = !{!1}

!0 = !{i32 1, !"wchar_size", i32 4}
!1 = !{!"clang version 10.0.0-4ubuntu1 "}
